(lp0
(dp1
a(dp2
a(dp3
a(lp4
a(dp5
S'doLike'
p6
I00
sS'comment'
p7
S"Auto like from Tyfe's Operation."
p8
sS'type'
p9
I1001
sS'doComment'
p10
I00
saS'u5141e1daccbd5de627db35648c461148'
p11
a(dp12
S'displayName'
p13
S''
p14
sS'Saved'
p15
I00
sS'statusMessage'
p16
g14
sS'pictureStatus'
p17
g14
sa(dp18
S'alwayRead'
p19
I00
sS'selfStatus'
p20
I01
sS'clock'
p21
I00
sa(lp22
a(dp23
S'Saved'
p24
I00
sS'displayName'
p25
g14
sS'statusMessage'
p26
g14
sS'pictureStatus'
p27
g14
sa(lp28
a.