(lp0
(dp1
a(dp2
a(dp3
a(lp4
a(dp5
S'doLike'
p6
I00
sS'comment'
p7
S"Auto like from Tyfe's Operation."
p8
sS'type'
p9
I1001
sS'doComment'
p10
I00
saS'u5141e1daccbd5de627db35648c461148'
p11
a(dp12
S'Saved'
p13
I00
sS'displayName'
p14
S''
p15
sS'statusMessage'
p16
g15
sS'pictureStatus'
p17
g15
sa(dp18
S'alwayRead'
p19
I00
sS'selfStatus'
p20
I01
sS'clock'
p21
I00
sa(lp22
a(dp23
S'displayName'
p24
g15
sS'Saved'
p25
I00
sS'statusMessage'
p26
g15
sS'pictureStatus'
p27
g15
sa.