(lp0
(dp1
S'c0a70cb7bd805683d50c4a30ea5ec2285'
p2
(lp3
S'u379b01f78154039dd38a4df4205c4a3b'
p4
aS'ude30bdec78f101ca873ce26ce1f0f48a'
p5
aS'ue5c04a8611d962e77958e85238db5151'
p6
aS'ua3d949d129bb094a5b8706e3b58c726a'
p7
aS'uc00c4bb2acff95a38c3977e5f6228440'
p8
aS'u640f9fe932890bf5b8157cc6a468f25b'
p9
aS'u5cf9235e9eee466605b5117295f37d07'
p10
aS'ufba37a411a5f922dd9dc0668d915d082'
p11
asS'c9d7efb03ee3c0b5c45f80129a737ee63'
p12
(lp13
sS'c8a28d10f08162ec09605fc951ca1ba4b'
p14
(lp15
sS'c8ad81248f043f5659039dac03c1837e5'
p16
(lp17
S'ue57e2c6b5eab11ffeadae5c02c4bb470'
p18
aS'u763d7e26a3c4b13e831b057438ec49a4'
p19
aS'u8c5a910e28b231212982edf5e3acf202'
p20
aS'u8c5a910e28b231212982edf5e3acf202'
p21
aS'u5b5cd898587ecd73398c02b959373c72'
p22
aS'u9bf545393579d0e07c09740638050063'
p23
aS'u58a58cd27c59708c2e1f9451488b4591'
p24
aS'uc2893381b831459803d46caa9b008a8d'
p25
aS'ucd3275ddef2c72d919d53aae1635507d'
p26
aS'ue058d280ccac820f22faff20036d5220'
p27
aS'ue058d280ccac820f22faff20036d5220'
p28
aS'u49b807c18d98b1bd92cbf8e74488d41d'
p29
aS'ue058d280ccac820f22faff20036d5220'
p30
aS'u094b4573e9b117e109e5c18cd3c4d071'
p31
aS'u6cf982f6176f50619becbd2b098bc3c3'
p32
aS'u8c16213a1a9cc4f6c683e64cb05213fe'
p33
aS'u75e44787d1974bb9a341cd1b57763301'
p34
aS'ub844647dd9746ff3f98c81a7b461fe7b'
p35
aS'uaf5b2e59ada55e533d325bc649b231e3'
p36
aS'u7a490197de3bb5e18ac441795bdbd83a'
p37
aS'udae8e7ad241abf56165184a9e7ed5429'
p38
aS'u34729082e5f9b3a659d0705b09106762'
p39
aS'ue81a96d077e78f937dab2a1fad286c2d'
p40
aS'u15be204426427ed59098463b343b5038'
p41
aS'u8a473524e90285b4b395697ac1360108'
p42
aS'u495f66a05551aafa86795be96295a1ea'
p43
aS'u6a7e346ed8a68dfe1c3046c696889c60'
p44
aS'uf80cbda3b5e9c8d1443104a124348afc'
p45
aS'uae0dd6c3e77f2fa0374e5be042e6e13e'
p46
aS'u99d8f4d163bb4ad53c0e146b57b36d1c'
p47
aS'u1ebbef66c3daff9f5dbc86cf131233a2'
p48
aS'u5d9d1be549d1cf8ec2a6309de761cbef'
p49
asS'c8eb064e1777f8c13d8ec890ede7cc986'
p50
(lp51
S'u347e98d4af6cc6f18f86ddd01601eda6'
p52
aS'u4a70456a02c9446628b1a1c36014bf58'
p53
aS'u4a70456a02c9446628b1a1c36014bf58'
p54
aS'uccd07c248de9568ab2445fff9ee98da7'
p55
aS'u485968143555a62acda29d602270b656'
p56
asS'ce0cec2c96439523feff373c82c1feaec'
p57
(lp58
S'uc623398e31216345e8e89c05ce6b021e'
p59
aS'u1ebe69d64285aa09ef8ec2f8d5b88dd6'
p60
aS'uc7b54c308dc7e0ffec5ac53f8d9c6ece'
p61
aS'ue1ed9bf9ed690ed2de35a819c8c87309'
p62
aS'uc0bf7d6cef5d4336ca2deb5fdaa5f1cf'
p63
aS'u07c6824d0144bcece0a63b741b0830f8'
p64
asa(dp65
a(dp66
S'c8eb064e1777f8c13d8ec890ede7cc986'
p67
(lp68
sS'c8a28d10f08162ec09605fc951ca1ba4b'
p69
(lp70
sa.